target datalayout = "e-m:e-p270:32:32-p271:32:32-p272:64:64-i64:64-i128:128-f80:128-n8:16:32:64-S128"
target triple = "x86_64-pc-linux-gnu"

%struct._proto_node = type { ptr, ptr, ptr, ptr, ptr, ptr, ptr }
%struct.field_info = type { ptr, i32, i32, i32, i32, i32, i32, ptr, ptr, ptr, i32, i32 }
%struct._item_label_t = type { [240 x i8], i64, i64 }
%struct._header_field_info = type { ptr, ptr, i32, i32, ptr, i64, ptr, i32, i32, i32, i32, ptr }
%struct.write_json_data = type { ptr, ptr, i8, i8, ptr, ptr }
%struct._GSList = type { ptr, ptr }

@hf_text_only = external global i32, align 4
@.str.60 = private unnamed_addr constant [1 x i8] zeroinitializer, align 1
@.str.89 = private unnamed_addr constant [5 x i8] c"%s%s\00", align 1

; Function Attrs: null_pointer_is_valid sspstrong uwtable
define internal void @write_json_proto_node_value_list(ptr noundef %0, ptr noundef %1, ptr noundef %2) #0 {
  %4 = alloca ptr, align 8
  %5 = alloca ptr, align 8
  %6 = alloca ptr, align 8
  %7 = alloca ptr, align 8
  store ptr %0, ptr %4, align 8
  store ptr %1, ptr %5, align 8
  store ptr %2, ptr %6, align 8
  call void @llvm.lifetime.start.p0(i64 8, ptr %7) #15
  %8 = load ptr, ptr %4, align 8
  store ptr %8, ptr %7, align 8
  %9 = load ptr, ptr %7, align 8
  %10 = getelementptr inbounds nuw %struct._GSList, ptr %9, i32 0, i32 1
  %11 = load ptr, ptr %10, align 8
  %12 = icmp eq ptr %11, null
  br i1 %12, label %13, label %19

13:                                               ; preds = %3
  %14 = load ptr, ptr %5, align 8
  %15 = load ptr, ptr %7, align 8
  %16 = getelementptr inbounds nuw %struct._GSList, ptr %15, i32 0, i32 0
  %17 = load ptr, ptr %16, align 8
  %18 = load ptr, ptr %6, align 8
  call void %14(ptr noundef %17, ptr noundef %18)
  br label %39

19:                                               ; preds = %3
  %20 = load ptr, ptr %6, align 8
  %21 = getelementptr inbounds nuw %struct.write_json_data, ptr %20, i32 0, i32 5
  %22 = load ptr, ptr %21, align 8
  call void @json_dumper_begin_array(ptr noundef %22)
  br label %23

23:                                               ; preds = %26, %19
  %24 = load ptr, ptr %7, align 8
  %25 = icmp ne ptr %24, null
  br i1 %25, label %26, label %35

26:                                               ; preds = %23
  %27 = load ptr, ptr %5, align 8
  %28 = load ptr, ptr %7, align 8
  %29 = getelementptr inbounds nuw %struct._GSList, ptr %28, i32 0, i32 0
  %30 = load ptr, ptr %29, align 8
  %31 = load ptr, ptr %6, align 8
  call void %27(ptr noundef %30, ptr noundef %31)
  %32 = load ptr, ptr %7, align 8
  %33 = getelementptr inbounds nuw %struct._GSList, ptr %32, i32 0, i32 1
  %34 = load ptr, ptr %33, align 8
  store ptr %34, ptr %7, align 8
  br label %23, !llvm.loop !44

35:                                               ; preds = %23
  %36 = load ptr, ptr %6, align 8
  %37 = getelementptr inbounds nuw %struct.write_json_data, ptr %36, i32 0, i32 5
  %38 = load ptr, ptr %37, align 8
  call void @json_dumper_end_array(ptr noundef %38)
  br label %39

39:                                               ; preds = %35, %13
  call void @llvm.lifetime.end.p0(i64 8, ptr %7) #15
  ret void
}

; Function Attrs: nounwind null_pointer_is_valid sspstrong uwtable
define internal ptr @proto_node_to_json_key(ptr noundef %0) #7 {
  %2 = alloca ptr, align 8
  %3 = alloca ptr, align 8
  store ptr %0, ptr %2, align 8
  call void @llvm.lifetime.start.p0(i64 8, ptr %3) #15
  %4 = load ptr, ptr %2, align 8
  %5 = getelementptr inbounds nuw %struct._proto_node, ptr %4, i32 0, i32 5
  %6 = load ptr, ptr %5, align 8
  %7 = getelementptr inbounds nuw %struct.field_info, ptr %6, i32 0, i32 0
  %8 = load ptr, ptr %7, align 8
  %9 = getelementptr inbounds nuw %struct._header_field_info, ptr %8, i32 0, i32 7
  %10 = load i32, ptr %9, align 8
  %11 = load i32, ptr @hf_text_only, align 4
  %12 = icmp ne i32 %10, %11
  br i1 %12, label %13, label %21

13:                                               ; preds = %1
  %14 = load ptr, ptr %2, align 8
  %15 = getelementptr inbounds nuw %struct._proto_node, ptr %14, i32 0, i32 5
  %16 = load ptr, ptr %15, align 8
  %17 = getelementptr inbounds nuw %struct.field_info, ptr %16, i32 0, i32 0
  %18 = load ptr, ptr %17, align 8
  %19 = getelementptr inbounds nuw %struct._header_field_info, ptr %18, i32 0, i32 1
  %20 = load ptr, ptr %19, align 8
  store ptr %20, ptr %3, align 8
  br label %38

21:                                               ; preds = %1
  %22 = load ptr, ptr %2, align 8
  %23 = getelementptr inbounds nuw %struct._proto_node, ptr %22, i32 0, i32 5
  %24 = load ptr, ptr %23, align 8
  %25 = getelementptr inbounds nuw %struct.field_info, ptr %24, i32 0, i32 7
  %26 = load ptr, ptr %25, align 8
  %27 = icmp ne ptr %26, null
  br i1 %27, label %28, label %36

28:                                               ; preds = %21
  %29 = load ptr, ptr %2, align 8
  %30 = getelementptr inbounds nuw %struct._proto_node, ptr %29, i32 0, i32 5
  %31 = load ptr, ptr %30, align 8
  %32 = getelementptr inbounds nuw %struct.field_info, ptr %31, i32 0, i32 7
  %33 = load ptr, ptr %32, align 8
  %34 = getelementptr inbounds nuw %struct._item_label_t, ptr %33, i32 0, i32 0
  %35 = getelementptr inbounds [240 x i8], ptr %34, i64 0, i64 0
  store ptr %35, ptr %3, align 8
  br label %37

36:                                               ; preds = %21
  store ptr @.str.60, ptr %3, align 8
  br label %37

37:                                               ; preds = %36, %28
  br label %38

38:                                               ; preds = %37, %13
  %39 = load ptr, ptr %3, align 8
  call void @llvm.lifetime.end.p0(i64 8, ptr %3) #15
  ret ptr %39
}

; Function Attrs: null_pointer_is_valid sspstrong uwtable
define internal void @write_json_proto_node(ptr noundef %0, ptr noundef %1, ptr noundef %2, ptr noundef %3) #0 {
  %5 = alloca ptr, align 8
  %6 = alloca ptr, align 8
  %7 = alloca ptr, align 8
  %8 = alloca ptr, align 8
  %9 = alloca ptr, align 8
  %10 = alloca ptr, align 8
  %11 = alloca ptr, align 8
  store ptr %0, ptr %5, align 8
  store ptr %1, ptr %6, align 8
  store ptr %2, ptr %7, align 8
  store ptr %3, ptr %8, align 8
  call void @llvm.lifetime.start.p0(i64 8, ptr %9) #15
  %12 = load ptr, ptr %5, align 8
  %13 = getelementptr inbounds nuw %struct._GSList, ptr %12, i32 0, i32 0
  %14 = load ptr, ptr %13, align 8
  store ptr %14, ptr %9, align 8
  call void @llvm.lifetime.start.p0(i64 8, ptr %10) #15
  %15 = load ptr, ptr %9, align 8
  %16 = call ptr @proto_node_to_json_key(ptr noundef %15)
  store ptr %16, ptr %10, align 8
  call void @llvm.lifetime.start.p0(i64 8, ptr %11) #15
  %17 = load ptr, ptr %10, align 8
  %18 = load ptr, ptr %6, align 8
  %19 = call noalias ptr (ptr, ptr, ...) @wmem_strdup_printf(ptr noundef null, ptr noundef @.str.89, ptr noundef %17, ptr noundef %18)
  store ptr %19, ptr %11, align 8
  %20 = load ptr, ptr %8, align 8
  %21 = getelementptr inbounds nuw %struct.write_json_data, ptr %20, i32 0, i32 5
  %22 = load ptr, ptr %21, align 8
  %23 = load ptr, ptr %11, align 8
  call void @json_dumper_set_member_name(ptr noundef %22, ptr noundef %23)
  %24 = load ptr, ptr %11, align 8
  call void @g_free(ptr noundef %24)
  %25 = load ptr, ptr %5, align 8
  %26 = load ptr, ptr %7, align 8
  %27 = load ptr, ptr %8, align 8
  call void @write_json_proto_node_value_list(ptr noundef %25, ptr noundef %26, ptr noundef %27)
  call void @llvm.lifetime.end.p0(i64 8, ptr %11) #15
  call void @llvm.lifetime.end.p0(i64 8, ptr %10) #15
  call void @llvm.lifetime.end.p0(i64 8, ptr %9) #15
  ret void
}