; Function Attrs: null_pointer_is_valid sspstrong uwtable
define internal fastcc void @write_json_proto_node(ptr noundef readonly captures(address_is_null) %0, ptr noundef %1, ptr noundef readonly captures(none) %2, ptr noundef %3) unnamed_addr #0 {
  %5 = load ptr, ptr %0, align 8
  %6 = getelementptr i8, ptr %5, i64 40
  %.val = load ptr, ptr %6, align 8
  %7 = load ptr, ptr %.val, align 8
  %8 = getelementptr inbounds nuw i8, ptr %7, i64 48
  %9 = load i32, ptr %8, align 8
  %10 = load i32, ptr @hf_text_only, align 4
  %.not.i = icmp eq i32 %9, %10
  br i1 %.not.i, label %14, label %11

11:                                               ; preds = %4
  %12 = getelementptr inbounds nuw i8, ptr %7, i64 8
  %13 = load ptr, ptr %12, align 8
  br label %proto_node_to_json_key.exit

14:                                               ; preds = %4
  %15 = getelementptr inbounds nuw i8, ptr %.val, i64 32
  %16 = load ptr, ptr %15, align 8
  %.not6.i = icmp eq ptr %16, null
  %.str.60..i = select i1 %.not6.i, ptr @.str.60, ptr %16
  br label %proto_node_to_json_key.exit

proto_node_to_json_key.exit:                      ; preds = %11, %14
  %.0.i = phi ptr [ %13, %11 ], [ %.str.60..i, %14 ]
  %17 = tail call noalias ptr (ptr, ptr, ...) @wmem_strdup_printf(ptr noundef null, ptr noundef nonnull @.str.89, ptr noundef %.0.i, ptr noundef %1)
  %18 = getelementptr inbounds nuw i8, ptr %3, i64 32
  %19 = load ptr, ptr %18, align 8
  tail call void @json_dumper_set_member_name(ptr noundef %19, ptr noundef %17)
  tail call void @g_free(ptr noundef %17)
  %20 = getelementptr inbounds nuw i8, ptr %0, i64 8
  %21 = load ptr, ptr %20, align 8
  %22 = icmp eq ptr %21, null
  br i1 %22, label %23, label %25

23:                                               ; preds = %proto_node_to_json_key.exit
  %24 = load ptr, ptr %0, align 8
  tail call void %2(ptr noundef %24, ptr noundef %3)
  br label %write_json_proto_node_value_list.exit

25:                                               ; preds = %proto_node_to_json_key.exit
  %26 = load ptr, ptr %18, align 8
  tail call void @json_dumper_begin_array(ptr noundef %26)
  %.not12.i = icmp eq ptr %0, null
  br i1 %.not12.i, label %._crit_edge.i, label %.lr.ph.i

.lr.ph.i:                                         ; preds = %25, %.lr.ph.i
  %.013.i = phi ptr [ %29, %.lr.ph.i ], [ %0, %25 ]
  %27 = load ptr, ptr %.013.i, align 8
  tail call void %2(ptr noundef %27, ptr noundef %3)
  %28 = getelementptr inbounds nuw i8, ptr %.013.i, i64 8
  %29 = load ptr, ptr %28, align 8
  %.not.i10 = icmp eq ptr %29, null
  br i1 %.not.i10, label %._crit_edge.i, label %.lr.ph.i, !llvm.loop !46

._crit_edge.i:                                    ; preds = %.lr.ph.i, %25
  %30 = load ptr, ptr %18, align 8
  tail call void @json_dumper_end_array(ptr noundef %30)
  br label %write_json_proto_node_value_list.exit

write_json_proto_node_value_list.exit:            ; preds = %23, %._crit_edge.i
  ret void
}